target datalayout = "e-m:e-p270:32:32-p271:32:32-p272:64:64-i64:64-i128:128-f80:128-n8:16:32:64-S128"
target triple = "x86_64-pc-linux-gnu"

@H5HF_init_g = external global i8, align 1
@H5_libterm_g = external global i8, align 1
@.str = private unnamed_addr constant [101 x i8] c"generated/home/dtcxzyw/WorkSpace/Projects/compilers/llvm-opt-benchmark/bench/hdf5/hdf5/src/H5HFdbg.c\00", align 1
@__func__.H5HF_id_print = private unnamed_addr constant [14 x i8] c"H5HF_id_print\00", align 1
@H5E_HEAP_g = external global i64, align 8
@H5E_VERSION_g = external global i64, align 8
@.str.1 = private unnamed_addr constant [26 x i8] c"incorrect heap ID version\00", align 1
@stderr = external global ptr, align 8
@.str.2 = private unnamed_addr constant [37 x i8] c"%s: Heap ID type not supported yet!\0A\00", align 1
@H5E_UNSUPPORTED_g = external global i64, align 8
@.str.3 = private unnamed_addr constant [31 x i8] c"heap ID type not supported yet\00", align 1
@H5E_CANTGET_g = external global i64, align 8
@.str.4 = private unnamed_addr constant [30 x i8] c"can't retrieve heap ID length\00", align 1
@.str.5 = private unnamed_addr constant [25 x i8] c"%*s%-*s (%c, %lu , %zu)\0A\00", align 1
@.str.6 = private unnamed_addr constant [1 x i8] zeroinitializer, align 1
@.str.7 = private unnamed_addr constant [37 x i8] c"Heap ID info: (type, offset, length)\00", align 1

; Function Attrs: nounwind uwtable
define i32 @H5HF_id_print(ptr noundef %0, ptr noundef %1, ptr noundef %2, i32 noundef %3, i32 noundef %4) #0 {
  %6 = alloca ptr, align 8
  %7 = alloca ptr, align 8
  %8 = alloca ptr, align 8
  %9 = alloca i32, align 4
  %10 = alloca i32, align 4
  %11 = alloca ptr, align 8
  %12 = alloca i8, align 1
  %13 = alloca i64, align 8
  %14 = alloca i64, align 8
  %15 = alloca i8, align 1
  %16 = alloca i32, align 4
  %17 = alloca i8, align 1
  store ptr %0, ptr %6, align 8, !tbaa !3
  store ptr %1, ptr %7, align 8, !tbaa !8
  store ptr %2, ptr %8, align 8, !tbaa !9
  store i32 %3, ptr %9, align 4, !tbaa !11
  store i32 %4, ptr %10, align 4, !tbaa !11
  call void @llvm.lifetime.start.p0(i64 8, ptr %11) #8
  %18 = load ptr, ptr %7, align 8, !tbaa !8
  store ptr %18, ptr %11, align 8, !tbaa !13
  call void @llvm.lifetime.start.p0(i64 1, ptr %12) #8
  call void @llvm.lifetime.start.p0(i64 8, ptr %13) #8
  call void @llvm.lifetime.start.p0(i64 8, ptr %14) #8
  call void @llvm.lifetime.start.p0(i64 1, ptr %15) #8
  call void @llvm.lifetime.start.p0(i64 4, ptr %16) #8
  store i32 0, ptr %16, align 4, !tbaa !11
  call void @llvm.lifetime.start.p0(i64 1, ptr %17) #8
  store i8 0, ptr %17, align 1, !tbaa !15
  %19 = load i8, ptr @H5HF_init_g, align 1, !tbaa !15, !range !17, !noundef !18
  %20 = trunc i8 %19 to i1
  br i1 %20, label %25, label %21

21:                                               ; preds = %5
  %22 = load i8, ptr @H5_libterm_g, align 1, !tbaa !15, !range !17, !noundef !18
  %23 = trunc i8 %22 to i1
  %24 = xor i1 %23, true
  br label %25

25:                                               ; preds = %21, %5
  %26 = phi i1 [ true, %5 ], [ %24, %21 ]
  %27 = xor i1 %26, true
  %28 = xor i1 %27, true
  %29 = zext i1 %28 to i32
  %30 = sext i32 %29 to i64
  %31 = call i64 @llvm.expect.i64(i64 %30, i64 1)
  %32 = icmp ne i64 %31, 0
  br i1 %32, label %33, label %158

33:                                               ; preds = %25
  %34 = load ptr, ptr %11, align 8, !tbaa !13
  %35 = load i8, ptr %34, align 1, !tbaa !19
  store i8 %35, ptr %12, align 1, !tbaa !19
  %36 = load i8, ptr %12, align 1, !tbaa !19
  %37 = zext i8 %36 to i32
  %38 = and i32 %37, 192
  %39 = icmp ne i32 %38, 0
  br i1 %39, label %40, label %59

40:                                               ; preds = %33
  br label %41

41:                                               ; preds = %40
  br label %42

42:                                               ; preds = %41
  br label %43

43:                                               ; preds = %42
  %44 = load i64, ptr @H5E_HEAP_g, align 8, !tbaa !20
  %45 = load i64, ptr @H5E_VERSION_g, align 8, !tbaa !20
  %46 = call i32 (ptr, ptr, i32, i64, i64, ptr, ...) @H5E_printf_stack(ptr noundef @.str, ptr noundef @__func__.H5HF_id_print, i32 noundef 123, i64 noundef %44, i64 noundef %45, ptr noundef @.str.1)
  br label %47

47:                                               ; preds = %43
  br label %48

48:                                               ; preds = %47
  store i8 1, ptr %17, align 1, !tbaa !15
  %49 = load i8, ptr %17, align 1, !tbaa !15, !range !17, !noundef !18
  %50 = trunc i8 %49 to i1
  %51 = zext i1 %50 to i8
  store i8 %51, ptr %17, align 1, !tbaa !15
  br label %52

52:                                               ; preds = %48
  br label %53

53:                                               ; preds = %52
  br label %54

54:                                               ; preds = %53
  store i32 -1, ptr %16, align 4, !tbaa !11
  br label %157

55:                                               ; No predecessors!
  br label %56

56:                                               ; preds = %55
  br label %57

57:                                               ; preds = %56
  br label %58

58:                                               ; preds = %57
  br label %59

59:                                               ; preds = %58, %33
  %60 = load i8, ptr %12, align 1, !tbaa !19
  %61 = zext i8 %60 to i32
  %62 = and i32 %61, 48
  %63 = icmp eq i32 %62, 0
  br i1 %63, label %64, label %65

64:                                               ; preds = %59
  store i8 77, ptr %15, align 1, !tbaa !19
  br label %100

65:                                               ; preds = %59
  %66 = load i8, ptr %12, align 1, !tbaa !19
  %67 = zext i8 %66 to i32
  %68 = and i32 %67, 48
  %69 = icmp eq i32 %68, 16
  br i1 %69, label %70, label %71

70:                                               ; preds = %65
  store i8 72, ptr %15, align 1, !tbaa !19
  br label %99

71:                                               ; preds = %65
  %72 = load i8, ptr %12, align 1, !tbaa !19
  %73 = zext i8 %72 to i32
  %74 = and i32 %73, 48
  %75 = icmp eq i32 %74, 32
  br i1 %75, label %76, label %77

76:                                               ; preds = %71
  store i8 84, ptr %15, align 1, !tbaa !19
  br label %98

77:                                               ; preds = %71
  %78 = load ptr, ptr @stderr, align 8, !tbaa !9
  %79 = call i32 (ptr, ptr, ...) @fprintf(ptr noundef %78, ptr noundef @.str.2, ptr noundef @__func__.H5HF_id_print) #8
  br label %80

80:                                               ; preds = %77
  br label %81

81:                                               ; preds = %80
  br label %82

82:                                               ; preds = %81
  %83 = load i64, ptr @H5E_HEAP_g, align 8, !tbaa !20
  %84 = load i64, ptr @H5E_UNSUPPORTED_g, align 8, !tbaa !20
  %85 = call i32 (ptr, ptr, i32, i64, i64, ptr, ...) @H5E_printf_stack(ptr noundef @.str, ptr noundef @__func__.H5HF_id_print, i32 noundef 137, i64 noundef %83, i64 noundef %84, ptr noundef @.str.3)
  br label %86

86:                                               ; preds = %82
  br label %87

87:                                               ; preds = %86
  store i8 1, ptr %17, align 1, !tbaa !15
  %88 = load i8, ptr %17, align 1, !tbaa !15, !range !17, !noundef !18
  %89 = trunc i8 %88 to i1
  %90 = zext i1 %89 to i8
  store i8 %90, ptr %17, align 1, !tbaa !15
  br label %91

91:                                               ; preds = %87
  br label %92

92:                                               ; preds = %91
  br label %93

93:                                               ; preds = %92
  store i32 -1, ptr %16, align 4, !tbaa !11
  br label %157

94:                                               ; No predecessors!
  br label %95

95:                                               ; preds = %94
  br label %96

96:                                               ; preds = %95
  br label %97

97:                                               ; preds = %96
  br label %98

98:                                               ; preds = %97, %76
  br label %99

99:                                               ; preds = %98, %70
  br label %100

100:                                              ; preds = %99, %64
  %101 = load ptr, ptr %6, align 8, !tbaa !3
  %102 = load ptr, ptr %11, align 8, !tbaa !13
  %103 = call i32 @H5HF_get_obj_len(ptr noundef %101, ptr noundef %102, ptr noundef %14)
  %104 = icmp slt i32 %103, 0
  br i1 %104, label %105, label %124

105:                                              ; preds = %100
  br label %106

106:                                              ; preds = %105
  br label %107

107:                                              ; preds = %106
  br label %108

108:                                              ; preds = %107
  %109 = load i64, ptr @H5E_HEAP_g, align 8, !tbaa !20
  %110 = load i64, ptr @H5E_CANTGET_g, align 8, !tbaa !20
  %111 = call i32 (ptr, ptr, i32, i64, i64, ptr, ...) @H5E_printf_stack(ptr noundef @.str, ptr noundef @__func__.H5HF_id_print, i32 noundef 142, i64 noundef %109, i64 noundef %110, ptr noundef @.str.4)
  br label %112

112:                                              ; preds = %108
  br label %113

113:                                              ; preds = %112
  store i8 1, ptr %17, align 1, !tbaa !15
  %114 = load i8, ptr %17, align 1, !tbaa !15, !range !17, !noundef !18
  %115 = trunc i8 %114 to i1
  %116 = zext i1 %115 to i8
  store i8 %116, ptr %17, align 1, !tbaa !15
  br label %117

117:                                              ; preds = %113
  br label %118

118:                                              ; preds = %117
  br label %119

119:                                              ; preds = %118
  store i32 -1, ptr %16, align 4, !tbaa !11
  br label %157

120:                                              ; No predecessors!
  br label %121

121:                                              ; preds = %120
  br label %122

122:                                              ; preds = %121
  br label %123

123:                                              ; preds = %122
  br label %124

124:                                              ; preds = %123, %100
  %125 = load ptr, ptr %6, align 8, !tbaa !3
  %126 = load ptr, ptr %11, align 8, !tbaa !13
  %127 = call i32 @H5HF_get_obj_off(ptr noundef %125, ptr noundef %126, ptr noundef %13)
  %128 = icmp slt i32 %127, 0
  br i1 %128, label %129, label %148

129:                                              ; preds = %124
  br label %130

130:                                              ; preds = %129
  br label %131

131:                                              ; preds = %130
  br label %132

132:                                              ; preds = %131
  %133 = load i64, ptr @H5E_HEAP_g, align 8, !tbaa !20
  %134 = load i64, ptr @H5E_CANTGET_g, align 8, !tbaa !20
  %135 = call i32 (ptr, ptr, i32, i64, i64, ptr, ...) @H5E_printf_stack(ptr noundef @.str, ptr noundef @__func__.H5HF_id_print, i32 noundef 146, i64 noundef %133, i64 noundef %134, ptr noundef @.str.4)
  br label %136

136:                                              ; preds = %132
  br label %137

137:                                              ; preds = %136
  store i8 1, ptr %17, align 1, !tbaa !15
  %138 = load i8, ptr %17, align 1, !tbaa !15, !range !17, !noundef !18
  %139 = trunc i8 %138 to i1
  %140 = zext i1 %139 to i8
  store i8 %140, ptr %17, align 1, !tbaa !15
  br label %141

141:                                              ; preds = %137
  br label %142

142:                                              ; preds = %141
  br label %143

143:                                              ; preds = %142
  store i32 -1, ptr %16, align 4, !tbaa !11
  br label %157

144:                                              ; No predecessors!
  br label %145

145:                                              ; preds = %144
  br label %146

146:                                              ; preds = %145
  br label %147

147:                                              ; preds = %146
  br label %148

148:                                              ; preds = %147, %124
  %149 = load ptr, ptr %8, align 8, !tbaa !9
  %150 = load i32, ptr %9, align 4, !tbaa !11
  %151 = load i32, ptr %10, align 4, !tbaa !11
  %152 = load i8, ptr %15, align 1, !tbaa !19
  %153 = sext i8 %152 to i32
  %154 = load i64, ptr %13, align 8, !tbaa !20
  %155 = load i64, ptr %14, align 8, !tbaa !20
  %156 = call i32 (ptr, ptr, ...) @fprintf(ptr noundef %149, ptr noundef @.str.5, i32 noundef %150, ptr noundef @.str.6, i32 noundef %151, ptr noundef @.str.7, i32 noundef %153, i64 noundef %154, i64 noundef %155) #8
  br label %157

157:                                              ; preds = %148, %143, %119, %93, %54
  br label %158

158:                                              ; preds = %157, %25
  %159 = load i32, ptr %16, align 4, !tbaa !11
  call void @llvm.lifetime.end.p0(i64 1, ptr %17) #8
  call void @llvm.lifetime.end.p0(i64 4, ptr %16) #8
  call void @llvm.lifetime.end.p0(i64 1, ptr %15) #8
  call void @llvm.lifetime.end.p0(i64 8, ptr %14) #8
  call void @llvm.lifetime.end.p0(i64 8, ptr %13) #8
  call void @llvm.lifetime.end.p0(i64 1, ptr %12) #8
  call void @llvm.lifetime.end.p0(i64 8, ptr %11) #8
  ret i32 %159
}