; Function Attrs: nounwind uwtable
define range(i32 -1, 1) i32 @H5HF_id_print(ptr noundef %0, ptr noundef %1, ptr noundef captures(none) %2, i32 noundef %3, i32 noundef %4) local_unnamed_addr #0 {
  %6 = alloca i64, align 8
  %7 = alloca i64, align 8
  call void @llvm.lifetime.start.p0(i64 8, ptr nonnull %6) #9
  call void @llvm.lifetime.start.p0(i64 8, ptr nonnull %7) #9
  %8 = load i8, ptr @H5HF_init_g, align 1, !tbaa !3, !range !7, !noundef !8
  %9 = trunc nuw i8 %8 to i1
  %10 = load i8, ptr @H5_libterm_g, align 1, !range !7
  %11 = trunc nuw i8 %10 to i1
  %12 = xor i1 %11, true
  %13 = select i1 %9, i1 true, i1 %12
  br i1 %13, label %14, label %48, !prof !9

14:                                               ; preds = %5
  %15 = load i8, ptr %1, align 1, !tbaa !10
  %.not = icmp ult i8 %15, 64
  br i1 %.not, label %20, label %16

16:                                               ; preds = %14
  %17 = load i64, ptr @H5E_HEAP_g, align 8, !tbaa !11
  %18 = load i64, ptr @H5E_VERSION_g, align 8, !tbaa !11
  %19 = tail call i32 (ptr, ptr, i32, i64, i64, ptr, ...) @H5E_printf_stack(ptr noundef nonnull @.str, ptr noundef nonnull @__func__.H5HF_id_print, i32 noundef 123, i64 noundef %17, i64 noundef %18, ptr noundef nonnull @.str.1) #9
  br label %48

20:                                               ; preds = %14
  %21 = lshr i8 %15, 4
  switch i8 %21, label %.unreachabledefault [
    i8 0, label %30
    i8 1, label %22
    i8 2, label %23
    i8 3, label %24
  ]

22:                                               ; preds = %20
  br label %30

23:                                               ; preds = %20
  br label %30

.unreachabledefault:                              ; preds = %20
  unreachable

24:                                               ; preds = %20
  %25 = load ptr, ptr @stderr, align 8, !tbaa !13
  %26 = tail call i32 (ptr, ptr, ...) @fprintf(ptr noundef %25, ptr noundef nonnull @.str.2, ptr noundef nonnull @__func__.H5HF_id_print) #10
  %27 = load i64, ptr @H5E_HEAP_g, align 8, !tbaa !11
  %28 = load i64, ptr @H5E_UNSUPPORTED_g, align 8, !tbaa !11
  %29 = tail call i32 (ptr, ptr, i32, i64, i64, ptr, ...) @H5E_printf_stack(ptr noundef nonnull @.str, ptr noundef nonnull @__func__.H5HF_id_print, i32 noundef 137, i64 noundef %27, i64 noundef %28, ptr noundef nonnull @.str.3) #9
  br label %48

30:                                               ; preds = %20, %22, %23
  %.018 = phi i32 [ 72, %22 ], [ 84, %23 ], [ 77, %20 ]
  %31 = call i32 @H5HF_get_obj_len(ptr noundef %0, ptr noundef nonnull %1, ptr noundef nonnull %7) #9
  %32 = icmp slt i32 %31, 0
  br i1 %32, label %33, label %37

33:                                               ; preds = %30
  %34 = load i64, ptr @H5E_HEAP_g, align 8, !tbaa !11
  %35 = load i64, ptr @H5E_CANTGET_g, align 8, !tbaa !11
  %36 = call i32 (ptr, ptr, i32, i64, i64, ptr, ...) @H5E_printf_stack(ptr noundef nonnull @.str, ptr noundef nonnull @__func__.H5HF_id_print, i32 noundef 142, i64 noundef %34, i64 noundef %35, ptr noundef nonnull @.str.4) #9
  br label %48

37:                                               ; preds = %30
  %38 = call i32 @H5HF_get_obj_off(ptr noundef %0, ptr noundef nonnull %1, ptr noundef nonnull %6) #9
  %39 = icmp slt i32 %38, 0
  br i1 %39, label %40, label %44

40:                                               ; preds = %37
  %41 = load i64, ptr @H5E_HEAP_g, align 8, !tbaa !11
  %42 = load i64, ptr @H5E_CANTGET_g, align 8, !tbaa !11
  %43 = call i32 (ptr, ptr, i32, i64, i64, ptr, ...) @H5E_printf_stack(ptr noundef nonnull @.str, ptr noundef nonnull @__func__.H5HF_id_print, i32 noundef 146, i64 noundef %41, i64 noundef %42, ptr noundef nonnull @.str.4) #9
  br label %48

44:                                               ; preds = %37
  %45 = load i64, ptr %6, align 8, !tbaa !11
  %46 = load i64, ptr %7, align 8, !tbaa !11
  %47 = call i32 (ptr, ptr, ...) @fprintf(ptr noundef %2, ptr noundef nonnull @.str.5, i32 noundef %3, ptr noundef nonnull @.str.6, i32 noundef %4, ptr noundef nonnull @.str.7, i32 noundef %.018, i64 noundef %45, i64 noundef %46) #9
  br label %48

48:                                               ; preds = %16, %24, %33, %40, %44, %5
  %.0 = phi i32 [ -1, %16 ], [ -1, %33 ], [ -1, %40 ], [ 0, %44 ], [ -1, %24 ], [ 0, %5 ]
  call void @llvm.lifetime.end.p0(i64 8, ptr nonnull %7) #9
  call void @llvm.lifetime.end.p0(i64 8, ptr nonnull %6) #9
  ret i32 %.0
}